; Function Attrs: mustprogress uwtable
define void @_ZN6icu_7721umtx_initImplPostInitERNS_9UInitOnceE(ptr noundef nonnull writeonly align 4 captures(none) dereferenceable(8) %0) local_unnamed_addr #0 personality ptr @__gxx_personality_v0 {
  %2 = load ptr, ptr @_ZN6icu_7712_GLOBAL__N_19initMutexE, align 8, !tbaa !7
  %3 = tail call noundef i32 @pthread_mutex_lock(ptr noundef nonnull align 8 dereferenceable(40) %2) #11
  %.not.i.i.i = icmp eq i32 %3, 0
  br i1 %.not.i.i.i, label %_ZNSt11unique_lockISt5mutexED2Ev.exit, label %4

4:                                                ; preds = %1
  tail call void @_ZSt20__throw_system_errori(i32 noundef %3) #12
  unreachable

_ZNSt11unique_lockISt5mutexED2Ev.exit:            ; preds = %1
  store atomic i32 2, ptr %0 release, align 4
  %5 = tail call noundef i32 @pthread_mutex_unlock(ptr noundef nonnull align 8 dereferenceable(40) %2) #11
  %6 = load ptr, ptr @_ZN6icu_7712_GLOBAL__N_113initConditionE, align 8, !tbaa !15
  tail call void @_ZNSt18condition_variable10notify_allEv(ptr noundef nonnull align 8 dereferenceable(48) %6) #11
  ret void
}